target datalayout = "e-m:e-p270:32:32-p271:32:32-p272:64:64-i64:64-i128:128-f80:128-n8:16:32:64-S128"
target triple = "x86_64-pc-linux-gnu"

%struct.oidset = type { %struct.kh_oid_set }
%struct.kh_oid_set = type { i32, i32, i32, i32, ptr, ptr, ptr }
%struct.object_id = type { [32 x i8], i32 }
%struct.oidset_iter = type { ptr, i32 }

@the_repository = external global ptr, align 8
@.str.171 = private unnamed_addr constant [23 x i8] c"unable to read %s blob\00", align 1
@.str.172 = private unnamed_addr constant [21 x i8] c"non-blob found at %s\00", align 1

; Function Attrs: inlinehint nounwind uwtable
define internal ptr @oidset_iter_next(ptr noundef %0) #2 {
  %2 = alloca ptr, align 8
  %3 = alloca ptr, align 8
  store ptr %0, ptr %3, align 8, !tbaa !170
  br label %4

4:                                                ; preds = %48, %1
  %5 = load ptr, ptr %3, align 8, !tbaa !170
  %6 = getelementptr inbounds nuw %struct.oidset_iter, ptr %5, i32 0, i32 1
  %7 = load i32, ptr %6, align 8, !tbaa !175
  %8 = load ptr, ptr %3, align 8, !tbaa !170
  %9 = getelementptr inbounds nuw %struct.oidset_iter, ptr %8, i32 0, i32 0
  %10 = load ptr, ptr %9, align 8, !tbaa !172
  %11 = getelementptr inbounds nuw %struct.kh_oid_set, ptr %10, i32 0, i32 0
  %12 = load i32, ptr %11, align 8, !tbaa !176
  %13 = icmp ne i32 %7, %12
  br i1 %13, label %14, label %53

14:                                               ; preds = %4
  %15 = load ptr, ptr %3, align 8, !tbaa !170
  %16 = getelementptr inbounds nuw %struct.oidset_iter, ptr %15, i32 0, i32 0
  %17 = load ptr, ptr %16, align 8, !tbaa !172
  %18 = getelementptr inbounds nuw %struct.kh_oid_set, ptr %17, i32 0, i32 4
  %19 = load ptr, ptr %18, align 8, !tbaa !177
  %20 = load ptr, ptr %3, align 8, !tbaa !170
  %21 = getelementptr inbounds nuw %struct.oidset_iter, ptr %20, i32 0, i32 1
  %22 = load i32, ptr %21, align 8, !tbaa !175
  %23 = lshr i32 %22, 4
  %24 = zext i32 %23 to i64
  %25 = getelementptr inbounds nuw i32, ptr %19, i64 %24
  %26 = load i32, ptr %25, align 4, !tbaa !11
  %27 = load ptr, ptr %3, align 8, !tbaa !170
  %28 = getelementptr inbounds nuw %struct.oidset_iter, ptr %27, i32 0, i32 1
  %29 = load i32, ptr %28, align 8, !tbaa !175
  %30 = and i32 %29, 15
  %31 = shl i32 %30, 1
  %32 = lshr i32 %26, %31
  %33 = and i32 %32, 3
  %34 = icmp ne i32 %33, 0
  br i1 %34, label %47, label %35

35:                                               ; preds = %14
  %36 = load ptr, ptr %3, align 8, !tbaa !170
  %37 = getelementptr inbounds nuw %struct.oidset_iter, ptr %36, i32 0, i32 0
  %38 = load ptr, ptr %37, align 8, !tbaa !172
  %39 = getelementptr inbounds nuw %struct.kh_oid_set, ptr %38, i32 0, i32 5
  %40 = load ptr, ptr %39, align 8, !tbaa !178
  %41 = load ptr, ptr %3, align 8, !tbaa !170
  %42 = getelementptr inbounds nuw %struct.oidset_iter, ptr %41, i32 0, i32 1
  %43 = load i32, ptr %42, align 8, !tbaa !175
  %44 = add i32 %43, 1
  store i32 %44, ptr %42, align 8, !tbaa !175
  %45 = zext i32 %43 to i64
  %46 = getelementptr inbounds nuw %struct.object_id, ptr %40, i64 %45
  store ptr %46, ptr %2, align 8
  br label %54

47:                                               ; preds = %14
  br label %48

48:                                               ; preds = %47
  %49 = load ptr, ptr %3, align 8, !tbaa !170
  %50 = getelementptr inbounds nuw %struct.oidset_iter, ptr %49, i32 0, i32 1
  %51 = load i32, ptr %50, align 8, !tbaa !175
  %52 = add i32 %51, 1
  store i32 %52, ptr %50, align 8, !tbaa !175
  br label %4, !llvm.loop !179

53:                                               ; preds = %4
  store ptr null, ptr %2, align 8
  br label %54

54:                                               ; preds = %53, %35
  %55 = load ptr, ptr %2, align 8
  ret ptr %55
}

; Function Attrs: inlinehint nounwind uwtable
define internal void @oidset_iter_init(ptr noundef %0, ptr noundef %1) #2 {
  %3 = alloca ptr, align 8
  %4 = alloca ptr, align 8
  store ptr %0, ptr %3, align 8, !tbaa !146
  store ptr %1, ptr %4, align 8, !tbaa !170
  %5 = load ptr, ptr %3, align 8, !tbaa !146
  %6 = getelementptr inbounds nuw %struct.oidset, ptr %5, i32 0, i32 0
  %7 = load ptr, ptr %4, align 8, !tbaa !170
  %8 = getelementptr inbounds nuw %struct.oidset_iter, ptr %7, i32 0, i32 0
  store ptr %6, ptr %8, align 8, !tbaa !172
  %9 = load ptr, ptr %4, align 8, !tbaa !170
  %10 = getelementptr inbounds nuw %struct.oidset_iter, ptr %9, i32 0, i32 1
  store i32 0, ptr %10, align 8, !tbaa !175
  ret void
}

; Function Attrs: nounwind uwtable
define internal i32 @fsck_blobs(ptr noundef %0, ptr noundef %1, i32 noundef %2, i32 noundef %3, ptr noundef %4, ptr noundef %5) #0 {
  %7 = alloca ptr, align 8
  %8 = alloca ptr, align 8
  %9 = alloca i32, align 4
  %10 = alloca i32, align 4
  %11 = alloca ptr, align 8
  %12 = alloca ptr, align 8
  %13 = alloca i32, align 4
  %14 = alloca %struct.oidset_iter, align 8
  %15 = alloca ptr, align 8
  %16 = alloca i32, align 4
  %17 = alloca i64, align 8
  %18 = alloca ptr, align 8
  %19 = alloca i32, align 4
  store ptr %0, ptr %7, align 8, !tbaa !146
  store ptr %1, ptr %8, align 8, !tbaa !146
  store i32 %2, ptr %9, align 4, !tbaa !11
  store i32 %3, ptr %10, align 4, !tbaa !11
  store ptr %4, ptr %11, align 8, !tbaa !24
  store ptr %5, ptr %12, align 8, !tbaa !9
  call void @llvm.lifetime.start.p0(i64 4, ptr %13) #11
  store i32 0, ptr %13, align 4, !tbaa !11
  call void @llvm.lifetime.start.p0(i64 16, ptr %14) #11
  call void @llvm.lifetime.start.p0(i64 8, ptr %15) #11
  %20 = load ptr, ptr %7, align 8, !tbaa !146
  call void @oidset_iter_init(ptr noundef %20, ptr noundef %14)
  br label %21

21:                                               ; preds = %74, %72, %6
  %22 = call ptr @oidset_iter_next(ptr noundef %14)
  store ptr %22, ptr %15, align 8, !tbaa !69
  %23 = icmp ne ptr %22, null
  br i1 %23, label %24, label %75

24:                                               ; preds = %21
  call void @llvm.lifetime.start.p0(i64 4, ptr %16) #11
  call void @llvm.lifetime.start.p0(i64 8, ptr %17) #11
  call void @llvm.lifetime.start.p0(i64 8, ptr %18) #11
  %25 = load ptr, ptr %8, align 8, !tbaa !146
  %26 = load ptr, ptr %15, align 8, !tbaa !69
  %27 = call i32 @oidset_contains(ptr noundef %25, ptr noundef %26)
  %28 = icmp ne i32 %27, 0
  br i1 %28, label %29, label %30

29:                                               ; preds = %24
  store i32 2, ptr %19, align 4
  br label %72, !llvm.loop !148

30:                                               ; preds = %24
  %31 = load ptr, ptr @the_repository, align 8, !tbaa !41
  %32 = load ptr, ptr %15, align 8, !tbaa !69
  %33 = call ptr @repo_read_object_file(ptr noundef %31, ptr noundef %32, ptr noundef %16, ptr noundef %17)
  store ptr %33, ptr %18, align 8, !tbaa !9
  %34 = load ptr, ptr %18, align 8, !tbaa !9
  %35 = icmp ne ptr %34, null
  br i1 %35, label %50, label %36

36:                                               ; preds = %30
  %37 = load ptr, ptr @the_repository, align 8, !tbaa !41
  %38 = load ptr, ptr %15, align 8, !tbaa !69
  %39 = call i32 @is_promisor_object(ptr noundef %37, ptr noundef %38)
  %40 = icmp ne i32 %39, 0
  br i1 %40, label %41, label %42

41:                                               ; preds = %36
  store i32 2, ptr %19, align 4
  br label %72, !llvm.loop !148

42:                                               ; preds = %36
  %43 = load ptr, ptr %11, align 8, !tbaa !24
  %44 = load ptr, ptr %15, align 8, !tbaa !69
  %45 = load i32, ptr %9, align 4, !tbaa !11
  %46 = load ptr, ptr %12, align 8, !tbaa !9
  %47 = call i32 (ptr, ptr, i32, i32, ptr, ...) @report(ptr noundef %43, ptr noundef %44, i32 noundef 3, i32 noundef %45, ptr noundef @.str.171, ptr noundef %46)
  %48 = load i32, ptr %13, align 4, !tbaa !11
  %49 = or i32 %48, %47
  store i32 %49, ptr %13, align 4, !tbaa !11
  store i32 2, ptr %19, align 4
  br label %72, !llvm.loop !148

50:                                               ; preds = %30
  %51 = load i32, ptr %16, align 4, !tbaa !11
  %52 = icmp eq i32 %51, 3
  br i1 %52, label %53, label %61

53:                                               ; preds = %50
  %54 = load ptr, ptr %15, align 8, !tbaa !69
  %55 = load ptr, ptr %18, align 8, !tbaa !9
  %56 = load i64, ptr %17, align 8, !tbaa !35
  %57 = load ptr, ptr %11, align 8, !tbaa !24
  %58 = call i32 @fsck_blob(ptr noundef %54, ptr noundef %55, i64 noundef %56, ptr noundef %57)
  %59 = load i32, ptr %13, align 4, !tbaa !11
  %60 = or i32 %59, %58
  store i32 %60, ptr %13, align 4, !tbaa !11
  br label %70

61:                                               ; preds = %50
  %62 = load ptr, ptr %11, align 8, !tbaa !24
  %63 = load ptr, ptr %15, align 8, !tbaa !69
  %64 = load i32, ptr %16, align 4, !tbaa !11
  %65 = load i32, ptr %10, align 4, !tbaa !11
  %66 = load ptr, ptr %12, align 8, !tbaa !9
  %67 = call i32 (ptr, ptr, i32, i32, ptr, ...) @report(ptr noundef %62, ptr noundef %63, i32 noundef %64, i32 noundef %65, ptr noundef @.str.172, ptr noundef %66)
  %68 = load i32, ptr %13, align 4, !tbaa !11
  %69 = or i32 %68, %67
  store i32 %69, ptr %13, align 4, !tbaa !11
  br label %70

70:                                               ; preds = %61, %53
  %71 = load ptr, ptr %18, align 8, !tbaa !9
  call void @free(ptr noundef %71) #11
  store i32 0, ptr %19, align 4
  br label %72

72:                                               ; preds = %70, %42, %41, %29
  call void @llvm.lifetime.end.p0(i64 8, ptr %18) #11
  call void @llvm.lifetime.end.p0(i64 8, ptr %17) #11
  call void @llvm.lifetime.end.p0(i64 4, ptr %16) #11
  %73 = load i32, ptr %19, align 4
  switch i32 %73, label %79 [
    i32 0, label %74
    i32 2, label %21
  ]

74:                                               ; preds = %72
  br label %21, !llvm.loop !148

75:                                               ; preds = %21
  %76 = load ptr, ptr %7, align 8, !tbaa !146
  call void @oidset_clear(ptr noundef %76)
  %77 = load ptr, ptr %8, align 8, !tbaa !146
  call void @oidset_clear(ptr noundef %77)
  %78 = load i32, ptr %13, align 4, !tbaa !11
  store i32 1, ptr %19, align 4
  call void @llvm.lifetime.end.p0(i64 8, ptr %15) #11
  call void @llvm.lifetime.end.p0(i64 16, ptr %14) #11
  call void @llvm.lifetime.end.p0(i64 4, ptr %13) #11
  ret i32 %78

79:                                               ; preds = %72
  unreachable
}