; Function Attrs: nounwind uwtable
define internal fastcc i32 @fsck_blobs(ptr noundef %0, ptr noundef %1, i32 noundef range(i32 33, 42) %2, i32 noundef range(i32 34, 45) %3, ptr noundef %4, ptr noundef %5) unnamed_addr #0 {
  %7 = alloca i32, align 4
  %8 = alloca i64, align 8
  %9 = load i32, ptr %0, align 8, !tbaa !123
  %.not16.i36 = icmp eq i32 %9, 0
  br i1 %.not16.i36, label %oidset_iter_next.exit.thread, label %.lr.ph.i.lr.ph

.lr.ph.i.lr.ph:                                   ; preds = %6
  %10 = getelementptr inbounds nuw i8, ptr %0, i64 16
  %11 = getelementptr inbounds nuw i8, ptr %0, i64 24
  br label %.lr.ph.i

.lr.ph.i:                                         ; preds = %.lr.ph.i.lr.ph, %50
  %12 = phi i32 [ %9, %.lr.ph.i.lr.ph ], [ %51, %50 ]
  %.038 = phi i32 [ 0, %.lr.ph.i.lr.ph ], [ %.1, %50 ]
  %.sroa.4.037 = phi i32 [ 0, %.lr.ph.i.lr.ph ], [ %27, %50 ]
  %13 = load ptr, ptr %10, align 8, !tbaa !124
  br label %14

14:                                               ; preds = %24, %.lr.ph.i
  %15 = phi i32 [ %.sroa.4.037, %.lr.ph.i ], [ %25, %24 ]
  %16 = lshr i32 %15, 4
  %17 = zext nneg i32 %16 to i64
  %18 = getelementptr inbounds nuw i32, ptr %13, i64 %17
  %19 = load i32, ptr %18, align 4, !tbaa !29
  %20 = shl i32 %15, 1
  %21 = and i32 %20, 30
  %22 = shl nuw i32 3, %21
  %23 = and i32 %22, %19
  %.not10.i = icmp eq i32 %23, 0
  br i1 %.not10.i, label %oidset_iter_next.exit, label %24

24:                                               ; preds = %14
  %25 = add i32 %15, 1
  %.not.i = icmp eq i32 %25, %12
  br i1 %.not.i, label %oidset_iter_next.exit.thread, label %14, !llvm.loop !125

oidset_iter_next.exit:                            ; preds = %14
  %26 = load ptr, ptr %11, align 8, !tbaa !126
  %27 = add i32 %15, 1
  %28 = zext i32 %15 to i64
  %29 = getelementptr inbounds nuw %struct.object_id, ptr %26, i64 %28
  %.not = icmp eq ptr %26, null
  br i1 %.not, label %oidset_iter_next.exit.thread, label %30

30:                                               ; preds = %oidset_iter_next.exit
  call void @llvm.lifetime.start.p0(i64 4, ptr nonnull %7) #16
  call void @llvm.lifetime.start.p0(i64 8, ptr nonnull %8) #16
  %31 = call i32 @oidset_contains(ptr noundef %1, ptr noundef nonnull %29) #16
  %.not26 = icmp eq i32 %31, 0
  br i1 %.not26, label %32, label %50, !llvm.loop !127

32:                                               ; preds = %30
  %33 = load ptr, ptr @the_repository, align 8, !tbaa !33
  %34 = call ptr @repo_read_object_file(ptr noundef %33, ptr noundef nonnull %29, ptr noundef nonnull %7, ptr noundef nonnull %8) #16
  %.not27 = icmp eq ptr %34, null
  br i1 %.not27, label %35, label %41

35:                                               ; preds = %32
  %36 = load ptr, ptr @the_repository, align 8, !tbaa !33
  %37 = call i32 @is_promisor_object(ptr noundef %36, ptr noundef nonnull %29) #16
  %.not28 = icmp eq i32 %37, 0
  br i1 %.not28, label %38, label %50, !llvm.loop !127

38:                                               ; preds = %35
  %39 = call i32 (ptr, ptr, i32, i32, ptr, ...) @report(ptr noundef %4, ptr noundef nonnull %29, i32 noundef 3, i32 noundef %2, ptr noundef nonnull @.str.171, ptr noundef %5)
  %40 = or i32 %39, %.038
  br label %50, !llvm.loop !127

41:                                               ; preds = %32
  %42 = load i32, ptr %7, align 4, !tbaa !29
  %43 = icmp eq i32 %42, 3
  br i1 %43, label %44, label %47

44:                                               ; preds = %41
  %45 = load i64, ptr %8, align 8, !tbaa !109
  %46 = call fastcc i32 @fsck_blob(ptr noundef nonnull %29, ptr noundef nonnull %34, i64 noundef %45, ptr noundef %4)
  br label %49

47:                                               ; preds = %41
  %48 = call i32 (ptr, ptr, i32, i32, ptr, ...) @report(ptr noundef %4, ptr noundef nonnull %29, i32 noundef %42, i32 noundef %3, ptr noundef nonnull @.str.172, ptr noundef %5)
  br label %49

49:                                               ; preds = %47, %44
  %.pn = phi i32 [ %46, %44 ], [ %48, %47 ]
  %.2 = or i32 %.pn, %.038
  call void @free(ptr noundef nonnull %34) #16
  br label %50

50:                                               ; preds = %35, %30, %49, %38
  %.1 = phi i32 [ %.2, %49 ], [ %40, %38 ], [ %.038, %30 ], [ %.038, %35 ]
  call void @llvm.lifetime.end.p0(i64 8, ptr nonnull %8) #16
  call void @llvm.lifetime.end.p0(i64 4, ptr nonnull %7) #16
  %51 = load i32, ptr %0, align 8, !tbaa !123
  %.not16.i = icmp eq i32 %27, %51
  br i1 %.not16.i, label %oidset_iter_next.exit.thread, label %.lr.ph.i

oidset_iter_next.exit.thread:                     ; preds = %oidset_iter_next.exit, %50, %24, %6
  %.035 = phi i32 [ 0, %6 ], [ %.038, %24 ], [ %.038, %oidset_iter_next.exit ], [ %.1, %50 ]
  call void @oidset_clear(ptr noundef nonnull %0) #16
  call void @oidset_clear(ptr noundef %1) #16
  ret i32 %.035
}